target datalayout = "e-m:e-p270:32:32-p271:32:32-p272:64:64-i64:64-i128:128-f80:128-n8:16:32:64-S128"
target triple = "x86_64-pc-linux-gnu"

%struct.ggml_backend_i = type { ptr, ptr, ptr, ptr, ptr, ptr, ptr, ptr, ptr, ptr, ptr, ptr, ptr }
%struct.ggml_backend_cpu_context = type { i32, ptr, ptr, i64, ptr, ptr }
%struct.ggml_backend = type { ptr, %struct.ggml_backend_i, ptr, ptr }

; Function Attrs: mustprogress nounwind uwtable
define internal void @_ZL21ggml_backend_cpu_freeP12ggml_backend(ptr noundef %0) #4 {
  %2 = alloca ptr, align 8
  %3 = alloca ptr, align 8
  store ptr %0, ptr %2, align 8, !tbaa !61
  call void @llvm.lifetime.start.p0(i64 8, ptr %3) #1
  %4 = load ptr, ptr %2, align 8, !tbaa !61
  %5 = getelementptr inbounds nuw %struct.ggml_backend, ptr %4, i32 0, i32 3
  %6 = load ptr, ptr %5, align 8, !tbaa !60
  store ptr %6, ptr %3, align 8, !tbaa !43
  %7 = load ptr, ptr %3, align 8, !tbaa !43
  %8 = getelementptr inbounds nuw %struct.ggml_backend_cpu_context, ptr %7, i32 0, i32 2
  %9 = load ptr, ptr %8, align 8, !tbaa !50
  %10 = icmp eq ptr %9, null
  br i1 %10, label %12, label %11

11:                                               ; preds = %1
  call void @_ZdaPv(ptr noundef %9) #18
  br label %12

12:                                               ; preds = %11, %1
  %13 = load ptr, ptr %3, align 8, !tbaa !43
  %14 = icmp eq ptr %13, null
  br i1 %14, label %16, label %15

15:                                               ; preds = %12
  call void @_ZdlPvm(ptr noundef %13, i64 noundef 48) #18
  br label %16

16:                                               ; preds = %15, %12
  %17 = load ptr, ptr %2, align 8, !tbaa !61
  %18 = icmp eq ptr %17, null
  br i1 %18, label %20, label %19

19:                                               ; preds = %16
  call void @_ZdlPvm(ptr noundef %17, i64 noundef 128) #18
  br label %20

20:                                               ; preds = %19, %16
  call void @llvm.lifetime.end.p0(i64 8, ptr %3) #1
  ret void
}