; Function Attrs: mustprogress nounwind uwtable
define internal void @_ZL21ggml_backend_cpu_freeP12ggml_backend(ptr noundef %0) #4 {
  %2 = getelementptr inbounds nuw i8, ptr %0, i64 120
  %3 = load ptr, ptr %2, align 8, !tbaa !29
  %4 = getelementptr inbounds nuw i8, ptr %3, i64 16
  %5 = load ptr, ptr %4, align 8, !tbaa !30
  %6 = icmp eq ptr %5, null
  br i1 %6, label %8, label %7

7:                                                ; preds = %1
  tail call void @_ZdaPv(ptr noundef nonnull %5) #28
  br label %8

8:                                                ; preds = %7, %1
  tail call void @_ZdlPvm(ptr noundef nonnull %3, i64 noundef 48) #28
  tail call void @_ZdlPvm(ptr noundef nonnull %0, i64 noundef 128) #28
  ret void
}